target datalayout = "e-m:e-p270:32:32-p271:32:32-p272:64:64-i64:64-i128:128-f80:128-n8:16:32:64-S128"
target triple = "x86_64-pc-linux-gnu"

%struct.DES_ks = type { [16 x %union.anon] }
%union.anon = type { [2 x i32] }

@.str.24 = private unnamed_addr constant [26 x i8] c"../openssl/test/destest.c\00", align 1
@.str.32 = private unnamed_addr constant [35 x i8] c"DES_set_key_checked(&cbc_key, &ks)\00", align 1
@.str.33 = private unnamed_addr constant [2 x i8] c"0\00", align 1
@cbc_key = internal global [8 x i8] c"\01#Eg\89\AB\CD\EF", align 1
@cbc_iv = internal global [8 x i8] c"\FE\DC\BA\98vT2\10", align 1
@.str.34 = private unnamed_addr constant [8 x i8] c"cbc_out\00", align 1
@.str.36 = private unnamed_addr constant [7 x i8] c"cbc_in\00", align 1
@.str.37 = private unnamed_addr constant [9 x i8] c"cbc_data\00", align 1
@cbc_data = internal global <{ [30 x i8], [10 x i8] }> <{ [30 x i8] c"7654321 Now is the time for \001", [10 x i8] zeroinitializer }>, align 16
@.str.39 = private unnamed_addr constant [37 x i8] c"DES_set_key_checked(&cbc2_key, &ks2)\00", align 1
@cbc2_key = internal global [8 x i8] c"\F1\E0\D3\C2\B5\A4\97\86", align 1
@.str.40 = private unnamed_addr constant [37 x i8] c"DES_set_key_checked(&cbc3_key, &ks3)\00", align 1
@cbc3_key = internal global [8 x i8] c"\FE\DC\BA\98vT2\10", align 1
@.str.41 = private unnamed_addr constant [8 x i8] c"cbc3_ok\00", align 1
@cbc3_ok = internal global [32 x i8] c"?\E3\01\C9b\AC\01\D0\22\13v<\1C\BDL\DCy\96W\C0d\EC\F5\D4\1Cg8\12\CF\DE\96u", align 16

; Function Attrs: nounwind uwtable
define internal i32 @test_ede_cbc() #0 {
  %1 = alloca i32, align 4
  %2 = alloca [8 x i8], align 1
  %3 = alloca %struct.DES_ks, align 4
  %4 = alloca %struct.DES_ks, align 4
  %5 = alloca %struct.DES_ks, align 4
  %6 = alloca [40 x i8], align 16
  %7 = alloca [40 x i8], align 16
  %8 = alloca i64, align 8
  %9 = alloca i64, align 8
  %10 = alloca i32, align 4
  call void @llvm.lifetime.start.p0(i64 8, ptr %2) #6
  call void @llvm.lifetime.start.p0(i64 128, ptr %3) #6
  call void @llvm.lifetime.start.p0(i64 128, ptr %4) #6
  call void @llvm.lifetime.start.p0(i64 128, ptr %5) #6
  call void @llvm.lifetime.start.p0(i64 40, ptr %6) #6
  call void @llvm.lifetime.start.p0(i64 40, ptr %7) #6
  call void @llvm.lifetime.start.p0(i64 8, ptr %8) #6
  %11 = call i64 @strlen(ptr noundef @cbc_data) #7
  %12 = add i64 %11, 1
  store i64 %12, ptr %8, align 8, !tbaa !8
  call void @llvm.lifetime.start.p0(i64 8, ptr %9) #6
  %13 = load i64, ptr %8, align 8, !tbaa !8
  %14 = add i64 %13, 7
  %15 = udiv i64 %14, 8
  %16 = mul i64 %15, 8
  store i64 %16, ptr %9, align 8, !tbaa !8
  %17 = call i32 @DES_set_key_checked(ptr noundef @cbc_key, ptr noundef %3)
  %18 = call i32 @test_int_eq(ptr noundef @.str.24, i32 noundef 428, ptr noundef @.str.32, ptr noundef @.str.33, i32 noundef %17, i32 noundef 0)
  %19 = icmp ne i32 %18, 0
  br i1 %19, label %21, label %20

20:                                               ; preds = %0
  store i32 0, ptr %1, align 4
  store i32 1, ptr %10, align 4
  br label %54

21:                                               ; preds = %0
  %22 = call i32 @DES_set_key_checked(ptr noundef @cbc2_key, ptr noundef %4)
  %23 = call i32 @test_int_eq(ptr noundef @.str.24, i32 noundef 430, ptr noundef @.str.39, ptr noundef @.str.33, i32 noundef %22, i32 noundef 0)
  %24 = icmp ne i32 %23, 0
  br i1 %24, label %26, label %25

25:                                               ; preds = %21
  store i32 0, ptr %1, align 4
  store i32 1, ptr %10, align 4
  br label %54

26:                                               ; preds = %21
  %27 = call i32 @DES_set_key_checked(ptr noundef @cbc3_key, ptr noundef %5)
  %28 = call i32 @test_int_eq(ptr noundef @.str.24, i32 noundef 432, ptr noundef @.str.40, ptr noundef @.str.33, i32 noundef %27, i32 noundef 0)
  %29 = icmp ne i32 %28, 0
  br i1 %29, label %31, label %30

30:                                               ; preds = %26
  store i32 0, ptr %1, align 4
  store i32 1, ptr %10, align 4
  br label %54

31:                                               ; preds = %26
  %32 = getelementptr inbounds [40 x i8], ptr %7, i64 0, i64 0
  call void @llvm.memset.p0.i64(ptr align 16 %32, i8 0, i64 40, i1 false)
  %33 = getelementptr inbounds [40 x i8], ptr %6, i64 0, i64 0
  call void @llvm.memset.p0.i64(ptr align 16 %33, i8 0, i64 40, i1 false)
  %34 = getelementptr inbounds [8 x i8], ptr %2, i64 0, i64 0
  call void @llvm.memcpy.p0.p0.i64(ptr align 1 %34, ptr align 1 @cbc_iv, i64 8, i1 false)
  %35 = getelementptr inbounds [40 x i8], ptr %7, i64 0, i64 0
  call void @DES_ede3_cbc_encrypt(ptr noundef @cbc_data, ptr noundef %35, i64 noundef 16, ptr noundef %3, ptr noundef %4, ptr noundef %5, ptr noundef %2, i32 noundef 1)
  %36 = getelementptr inbounds [40 x i8], ptr %7, i64 0, i64 16
  %37 = load i64, ptr %8, align 8, !tbaa !8
  %38 = sub i64 %37, 16
  call void @DES_ede3_cbc_encrypt(ptr noundef getelementptr inbounds ([40 x i8], ptr @cbc_data, i64 0, i64 16), ptr noundef %36, i64 noundef %38, ptr noundef %3, ptr noundef %4, ptr noundef %5, ptr noundef %2, i32 noundef 1)
  %39 = getelementptr inbounds [40 x i8], ptr %7, i64 0, i64 0
  %40 = load i64, ptr %9, align 8, !tbaa !8
  %41 = load i64, ptr %9, align 8, !tbaa !8
  %42 = call i32 @test_mem_eq(ptr noundef @.str.24, i32 noundef 442, ptr noundef @.str.34, ptr noundef @.str.41, ptr noundef %39, i64 noundef %40, ptr noundef @cbc3_ok, i64 noundef %41)
  %43 = icmp ne i32 %42, 0
  br i1 %43, label %45, label %44

44:                                               ; preds = %31
  store i32 0, ptr %1, align 4
  store i32 1, ptr %10, align 4
  br label %54

45:                                               ; preds = %31
  %46 = getelementptr inbounds [8 x i8], ptr %2, i64 0, i64 0
  call void @llvm.memcpy.p0.p0.i64(ptr align 1 %46, ptr align 1 @cbc_iv, i64 8, i1 false)
  %47 = getelementptr inbounds [40 x i8], ptr %7, i64 0, i64 0
  %48 = getelementptr inbounds [40 x i8], ptr %6, i64 0, i64 0
  %49 = load i64, ptr %8, align 8, !tbaa !8
  call void @DES_ede3_cbc_encrypt(ptr noundef %47, ptr noundef %48, i64 noundef %49, ptr noundef %3, ptr noundef %4, ptr noundef %5, ptr noundef %2, i32 noundef 0)
  %50 = getelementptr inbounds [40 x i8], ptr %6, i64 0, i64 0
  %51 = load i64, ptr %8, align 8, !tbaa !8
  %52 = load i64, ptr %8, align 8, !tbaa !8
  %53 = call i32 @test_mem_eq(ptr noundef @.str.24, i32 noundef 448, ptr noundef @.str.36, ptr noundef @.str.37, ptr noundef %50, i64 noundef %51, ptr noundef @cbc_data, i64 noundef %52)
  store i32 %53, ptr %1, align 4
  store i32 1, ptr %10, align 4
  br label %54

54:                                               ; preds = %45, %44, %30, %25, %20
  call void @llvm.lifetime.end.p0(i64 8, ptr %9) #6
  call void @llvm.lifetime.end.p0(i64 8, ptr %8) #6
  call void @llvm.lifetime.end.p0(i64 40, ptr %7) #6
  call void @llvm.lifetime.end.p0(i64 40, ptr %6) #6
  call void @llvm.lifetime.end.p0(i64 128, ptr %5) #6
  call void @llvm.lifetime.end.p0(i64 128, ptr %4) #6
  call void @llvm.lifetime.end.p0(i64 128, ptr %3) #6
  call void @llvm.lifetime.end.p0(i64 8, ptr %2) #6
  %55 = load i32, ptr %1, align 4
  ret i32 %55
}