; Function Attrs: nounwind uwtable
define internal i32 @test_ede_cbc() #0 {
  %1 = alloca [8 x i8], align 8
  %2 = alloca %struct.DES_ks, align 4
  %3 = alloca %struct.DES_ks, align 4
  %4 = alloca %struct.DES_ks, align 4
  %5 = alloca [40 x i8], align 16
  %6 = alloca [40 x i8], align 16
  call void @llvm.lifetime.start.p0(i64 8, ptr nonnull %1) #6
  call void @llvm.lifetime.start.p0(i64 128, ptr nonnull %2) #6
  call void @llvm.lifetime.start.p0(i64 128, ptr nonnull %3) #6
  call void @llvm.lifetime.start.p0(i64 128, ptr nonnull %4) #6
  call void @llvm.lifetime.start.p0(i64 40, ptr nonnull %5) #6
  call void @llvm.lifetime.start.p0(i64 40, ptr nonnull %6) #6
  %7 = tail call i64 @strlen(ptr noundef nonnull dereferenceable(1) @cbc_data) #7
  %8 = add i64 %7, 1
  %9 = and i64 %7, -8
  %10 = add i64 %9, 8
  %11 = call i32 @DES_set_key_checked(ptr noundef nonnull @cbc_key, ptr noundef nonnull %2) #6
  %12 = call i32 @test_int_eq(ptr noundef nonnull @.str.24, i32 noundef 428, ptr noundef nonnull @.str.32, ptr noundef nonnull @.str.33, i32 noundef %11, i32 noundef 0) #6
  %.not = icmp eq i32 %12, 0
  br i1 %.not, label %27, label %13

13:                                               ; preds = %0
  %14 = call i32 @DES_set_key_checked(ptr noundef nonnull @cbc2_key, ptr noundef nonnull %3) #6
  %15 = call i32 @test_int_eq(ptr noundef nonnull @.str.24, i32 noundef 430, ptr noundef nonnull @.str.39, ptr noundef nonnull @.str.33, i32 noundef %14, i32 noundef 0) #6
  %.not8 = icmp eq i32 %15, 0
  br i1 %.not8, label %27, label %16

16:                                               ; preds = %13
  %17 = call i32 @DES_set_key_checked(ptr noundef nonnull @cbc3_key, ptr noundef nonnull %4) #6
  %18 = call i32 @test_int_eq(ptr noundef nonnull @.str.24, i32 noundef 432, ptr noundef nonnull @.str.40, ptr noundef nonnull @.str.33, i32 noundef %17, i32 noundef 0) #6
  %.not9 = icmp eq i32 %18, 0
  br i1 %.not9, label %27, label %19

19:                                               ; preds = %16
  call void @llvm.memset.p0.i64(ptr noundef nonnull align 16 dereferenceable(40) %6, i8 0, i64 40, i1 false)
  call void @llvm.memset.p0.i64(ptr noundef nonnull align 16 dereferenceable(40) %5, i8 0, i64 40, i1 false)
  %20 = load i64, ptr @cbc_iv, align 8
  store i64 %20, ptr %1, align 8
  call void @DES_ede3_cbc_encrypt(ptr noundef nonnull @cbc_data, ptr noundef nonnull %6, i64 noundef 16, ptr noundef nonnull %2, ptr noundef nonnull %3, ptr noundef nonnull %4, ptr noundef nonnull %1, i32 noundef 1) #6
  %21 = getelementptr inbounds nuw i8, ptr %6, i64 16
  %22 = add i64 %7, -15
  call void @DES_ede3_cbc_encrypt(ptr noundef nonnull getelementptr inbounds nuw (i8, ptr @cbc_data, i64 16), ptr noundef nonnull %21, i64 noundef %22, ptr noundef nonnull %2, ptr noundef nonnull %3, ptr noundef nonnull %4, ptr noundef nonnull %1, i32 noundef 1) #6
  %23 = call i32 @test_mem_eq(ptr noundef nonnull @.str.24, i32 noundef 442, ptr noundef nonnull @.str.34, ptr noundef nonnull @.str.41, ptr noundef nonnull %6, i64 noundef %10, ptr noundef nonnull @cbc3_ok, i64 noundef %10) #6
  %.not10 = icmp eq i32 %23, 0
  br i1 %.not10, label %27, label %24

24:                                               ; preds = %19
  %25 = load i64, ptr @cbc_iv, align 8
  store i64 %25, ptr %1, align 8
  call void @DES_ede3_cbc_encrypt(ptr noundef nonnull %6, ptr noundef nonnull %5, i64 noundef %8, ptr noundef nonnull %2, ptr noundef nonnull %3, ptr noundef nonnull %4, ptr noundef nonnull %1, i32 noundef 0) #6
  %26 = call i32 @test_mem_eq(ptr noundef nonnull @.str.24, i32 noundef 448, ptr noundef nonnull @.str.36, ptr noundef nonnull @.str.37, ptr noundef nonnull %5, i64 noundef %8, ptr noundef nonnull @cbc_data, i64 noundef %8) #6
  br label %27

27:                                               ; preds = %19, %16, %13, %0, %24
  %.0 = phi i32 [ %26, %24 ], [ 0, %0 ], [ 0, %13 ], [ 0, %16 ], [ 0, %19 ]
  call void @llvm.lifetime.end.p0(i64 40, ptr nonnull %6) #6
  call void @llvm.lifetime.end.p0(i64 40, ptr nonnull %5) #6
  call void @llvm.lifetime.end.p0(i64 128, ptr nonnull %4) #6
  call void @llvm.lifetime.end.p0(i64 128, ptr nonnull %3) #6
  call void @llvm.lifetime.end.p0(i64 128, ptr nonnull %2) #6
  call void @llvm.lifetime.end.p0(i64 8, ptr nonnull %1) #6
  ret i32 %.0
}